target datalayout = "e-m:e-p270:32:32-p271:32:32-p272:64:64-i64:64-i128:128-f80:128-n8:16:32:64-S128"
target triple = "x86_64-unknown-linux-gnu"

%"class.icu_75::SearchIterator" = type { %"class.icu_75::UObject", ptr, ptr, %"class.icu_75::UnicodeString" }
%"class.icu_75::UObject" = type { ptr }
%"class.icu_75::UnicodeString" = type { %"class.icu_75::Replaceable", %"union.icu_75::UnicodeString::StackBufferOrFields" }
%"class.icu_75::Replaceable" = type { %"class.icu_75::UObject" }
%"union.icu_75::UnicodeString::StackBufferOrFields" = type { %struct.anon.0, [32 x i8] }
%struct.anon.0 = type { i16, i32, i32, ptr }
%struct.USearch = type { ptr, i32, i8, i8, i16, ptr, ptr, i32, i32, i8, i8 }

; Function Attrs: mustprogress uwtable
define void @_ZN6icu_7514SearchIterator16setMatchNotFoundEv(ptr noundef nonnull align 8 dereferenceable(88) %this) #0 align 2 {
entry:
  %this.addr = alloca ptr, align 8
  %status = alloca i32, align 4
  store ptr %this, ptr %this.addr, align 8
  %this1 = load ptr, ptr %this.addr, align 8
  %vtable = load ptr, ptr %this1, align 8
  %vfn = getelementptr inbounds ptr, ptr %vtable, i64 13
  %0 = load ptr, ptr %vfn, align 8
  call void %0(ptr noundef nonnull align 8 dereferenceable(88) %this1, i32 noundef -1)
  %vtable2 = load ptr, ptr %this1, align 8
  %vfn3 = getelementptr inbounds ptr, ptr %vtable2, i64 12
  %1 = load ptr, ptr %vfn3, align 8
  call void %1(ptr noundef nonnull align 8 dereferenceable(88) %this1, i32 noundef 0)
  store i32 0, ptr %status, align 4
  %m_search_ = getelementptr inbounds %"class.icu_75::SearchIterator", ptr %this1, i32 0, i32 1
  %2 = load ptr, ptr %m_search_, align 8
  %isForwardSearching = getelementptr inbounds %struct.USearch, ptr %2, i32 0, i32 9
  %3 = load i8, ptr %isForwardSearching, align 8
  %tobool = icmp ne i8 %3, 0
  br i1 %tobool, label %if.then, label %if.else

if.then:                                          ; preds = %entry
  %m_search_4 = getelementptr inbounds %"class.icu_75::SearchIterator", ptr %this1, i32 0, i32 1
  %4 = load ptr, ptr %m_search_4, align 8
  %textLength = getelementptr inbounds %struct.USearch, ptr %4, i32 0, i32 1
  %5 = load i32, ptr %textLength, align 8
  %vtable5 = load ptr, ptr %this1, align 8
  %vfn6 = getelementptr inbounds ptr, ptr %vtable5, i64 3
  %6 = load ptr, ptr %vfn6, align 8
  call void %6(ptr noundef nonnull align 8 dereferenceable(88) %this1, i32 noundef %5, ptr noundef nonnull align 4 dereferenceable(4) %status)
  br label %if.end

if.else:                                          ; preds = %entry
  %vtable7 = load ptr, ptr %this1, align 8
  %vfn8 = getelementptr inbounds ptr, ptr %vtable7, i64 3
  %7 = load ptr, ptr %vfn8, align 8
  call void %7(ptr noundef nonnull align 8 dereferenceable(88) %this1, i32 noundef 0, ptr noundef nonnull align 4 dereferenceable(4) %status)
  br label %if.end

if.end:                                           ; preds = %if.else, %if.then
  ret void
}

; Function Attrs: mustprogress nounwind uwtable
define internal noundef signext i8 @_ZL9U_SUCCESS10UErrorCode(i32 noundef %code) #1 {
entry:
  %code.addr = alloca i32, align 4
  store i32 %code, ptr %code.addr, align 4
  %0 = load i32, ptr %code.addr, align 4
  %cmp = icmp sle i32 %0, 0
  %conv = zext i1 %cmp to i8
  ret i8 %conv
}

; Function Attrs: mustprogress uwtable
define noundef i32 @_ZN6icu_7514SearchIterator8previousER10UErrorCode(ptr noundef nonnull align 8 dereferenceable(88) %this, ptr noundef nonnull align 4 dereferenceable(4) %status) #0 align 2 {
entry:
  %retval = alloca i32, align 4
  %this.addr = alloca ptr, align 8
  %status.addr = alloca ptr, align 8
  %offset = alloca i32, align 4
  %matchindex = alloca i32, align 4
  store ptr %this, ptr %this.addr, align 8
  store ptr %status, ptr %status.addr, align 8
  %this1 = load ptr, ptr %this.addr, align 8
  %0 = load ptr, ptr %status.addr, align 8
  %1 = load i32, ptr %0, align 4
  %call = call noundef signext i8 @_ZL9U_SUCCESS10UErrorCode(i32 noundef %1)
  %tobool = icmp ne i8 %call, 0
  br i1 %tobool, label %if.then, label %if.end40

if.then:                                          ; preds = %entry
  %m_search_ = getelementptr inbounds %"class.icu_75::SearchIterator", ptr %this1, i32 0, i32 1
  %2 = load ptr, ptr %m_search_, align 8
  %reset = getelementptr inbounds %struct.USearch, ptr %2, i32 0, i32 10
  %3 = load i8, ptr %reset, align 1
  %tobool2 = icmp ne i8 %3, 0
  br i1 %tobool2, label %if.then3, label %if.else

if.then3:                                         ; preds = %if.then
  %m_search_4 = getelementptr inbounds %"class.icu_75::SearchIterator", ptr %this1, i32 0, i32 1
  %4 = load ptr, ptr %m_search_4, align 8
  %textLength = getelementptr inbounds %struct.USearch, ptr %4, i32 0, i32 1
  %5 = load i32, ptr %textLength, align 8
  store i32 %5, ptr %offset, align 4
  %m_search_5 = getelementptr inbounds %"class.icu_75::SearchIterator", ptr %this1, i32 0, i32 1
  %6 = load ptr, ptr %m_search_5, align 8
  %isForwardSearching = getelementptr inbounds %struct.USearch, ptr %6, i32 0, i32 9
  store i8 0, ptr %isForwardSearching, align 8
  %m_search_6 = getelementptr inbounds %"class.icu_75::SearchIterator", ptr %this1, i32 0, i32 1
  %7 = load ptr, ptr %m_search_6, align 8
  %reset7 = getelementptr inbounds %struct.USearch, ptr %7, i32 0, i32 10
  store i8 0, ptr %reset7, align 1
  %8 = load i32, ptr %offset, align 4
  %9 = load ptr, ptr %status.addr, align 8
  %vtable = load ptr, ptr %this1, align 8
  %vfn = getelementptr inbounds ptr, ptr %vtable, i64 3
  %10 = load ptr, ptr %vfn, align 8
  call void %10(ptr noundef nonnull align 8 dereferenceable(88) %this1, i32 noundef %8, ptr noundef nonnull align 4 dereferenceable(4) %9)
  br label %if.end

if.else:                                          ; preds = %if.then
  %vtable8 = load ptr, ptr %this1, align 8
  %vfn9 = getelementptr inbounds ptr, ptr %vtable8, i64 4
  %11 = load ptr, ptr %vfn9, align 8
  %call10 = call noundef i32 %11(ptr noundef nonnull align 8 dereferenceable(88) %this1)
  store i32 %call10, ptr %offset, align 4
  br label %if.end

if.end:                                           ; preds = %if.else, %if.then3
  %m_search_11 = getelementptr inbounds %"class.icu_75::SearchIterator", ptr %this1, i32 0, i32 1
  %12 = load ptr, ptr %m_search_11, align 8
  %matchedIndex = getelementptr inbounds %struct.USearch, ptr %12, i32 0, i32 7
  %13 = load i32, ptr %matchedIndex, align 8
  store i32 %13, ptr %matchindex, align 4
  %m_search_12 = getelementptr inbounds %"class.icu_75::SearchIterator", ptr %this1, i32 0, i32 1
  %14 = load ptr, ptr %m_search_12, align 8
  %isForwardSearching13 = getelementptr inbounds %struct.USearch, ptr %14, i32 0, i32 9
  %15 = load i8, ptr %isForwardSearching13, align 8
  %tobool14 = icmp ne i8 %15, 0
  br i1 %tobool14, label %if.then15, label %if.else20

if.then15:                                        ; preds = %if.end
  %m_search_16 = getelementptr inbounds %"class.icu_75::SearchIterator", ptr %this1, i32 0, i32 1
  %16 = load ptr, ptr %m_search_16, align 8
  %isForwardSearching17 = getelementptr inbounds %struct.USearch, ptr %16, i32 0, i32 9
  store i8 0, ptr %isForwardSearching17, align 8
  %17 = load i32, ptr %matchindex, align 4
  %cmp = icmp ne i32 %17, -1
  br i1 %cmp, label %if.then18, label %if.end19

if.then18:                                        ; preds = %if.then15
  %18 = load i32, ptr %matchindex, align 4
  store i32 %18, ptr %retval, align 4
  br label %return

if.end19:                                         ; preds = %if.then15
  br label %if.end25

if.else20:                                        ; preds = %if.end
  %19 = load i32, ptr %offset, align 4
  %cmp21 = icmp eq i32 %19, 0
  br i1 %cmp21, label %if.then23, label %lor.lhs.false

lor.lhs.false:                                    ; preds = %if.else20
  %20 = load i32, ptr %matchindex, align 4
  %cmp22 = icmp eq i32 %20, 0
  br i1 %cmp22, label %if.then23, label %if.end24

if.then23:                                        ; preds = %lor.lhs.false, %if.else20
  call void @_ZN6icu_7514SearchIterator16setMatchNotFoundEv(ptr noundef nonnull align 8 dereferenceable(88) %this1)
  store i32 -1, ptr %retval, align 4
  br label %return

if.end24:                                         ; preds = %lor.lhs.false
  br label %if.end25

if.end25:                                         ; preds = %if.end24, %if.end19
  %21 = load i32, ptr %matchindex, align 4
  %cmp26 = icmp ne i32 %21, -1
  br i1 %cmp26, label %if.then27, label %if.end36

if.then27:                                        ; preds = %if.end25
  %m_search_28 = getelementptr inbounds %"class.icu_75::SearchIterator", ptr %this1, i32 0, i32 1
  %22 = load ptr, ptr %m_search_28, align 8
  %isOverlap = getelementptr inbounds %struct.USearch, ptr %22, i32 0, i32 2
  %23 = load i8, ptr %isOverlap, align 4
  %tobool29 = icmp ne i8 %23, 0
  br i1 %tobool29, label %if.then30, label %if.end32

if.then30:                                        ; preds = %if.then27
  %m_search_31 = getelementptr inbounds %"class.icu_75::SearchIterator", ptr %this1, i32 0, i32 1
  %24 = load ptr, ptr %m_search_31, align 8
  %matchedLength = getelementptr inbounds %struct.USearch, ptr %24, i32 0, i32 8
  %25 = load i32, ptr %matchedLength, align 4
  %sub = sub nsw i32 %25, 2
  %26 = load i32, ptr %matchindex, align 4
  %add = add nsw i32 %26, %sub
  store i32 %add, ptr %matchindex, align 4
  br label %if.end32

if.end32:                                         ; preds = %if.then30, %if.then27
  %27 = load i32, ptr %matchindex, align 4
  %28 = load ptr, ptr %status.addr, align 8
  %vtable33 = load ptr, ptr %this1, align 8
  %vfn34 = getelementptr inbounds ptr, ptr %vtable33, i64 11
  %29 = load ptr, ptr %vfn34, align 8
  %call35 = call noundef i32 %29(ptr noundef nonnull align 8 dereferenceable(88) %this1, i32 noundef %27, ptr noundef nonnull align 4 dereferenceable(4) %28)
  store i32 %call35, ptr %retval, align 4
  br label %return

if.end36:                                         ; preds = %if.end25
  %30 = load i32, ptr %offset, align 4
  %31 = load ptr, ptr %status.addr, align 8
  %vtable37 = load ptr, ptr %this1, align 8
  %vfn38 = getelementptr inbounds ptr, ptr %vtable37, i64 11
  %32 = load ptr, ptr %vfn38, align 8
  %call39 = call noundef i32 %32(ptr noundef nonnull align 8 dereferenceable(88) %this1, i32 noundef %30, ptr noundef nonnull align 4 dereferenceable(4) %31)
  store i32 %call39, ptr %retval, align 4
  br label %return

if.end40:                                         ; preds = %entry
  store i32 -1, ptr %retval, align 4
  br label %return

return:                                           ; preds = %if.end40, %if.end36, %if.end32, %if.then23, %if.then18
  %33 = load i32, ptr %retval, align 4
  ret i32 %33
}