; Function Attrs: mustprogress uwtable
define noundef i32 @_ZN6icu_7514SearchIterator8previousER10UErrorCode(ptr noundef nonnull align 8 dereferenceable(88) %this, ptr noundef nonnull align 4 dereferenceable(4) %status) local_unnamed_addr #0 align 2 {
entry:
  %status.i = alloca i32, align 4
  %0 = load i32, ptr %status, align 4
  %cmp.i = icmp sgt i32 %0, 0
  br i1 %cmp.i, label %return, label %if.then

if.then:                                          ; preds = %entry
  %m_search_ = getelementptr inbounds i8, ptr %this, i64 8
  %1 = load ptr, ptr %m_search_, align 8
  %reset = getelementptr inbounds i8, ptr %1, i64 41
  %2 = load i8, ptr %reset, align 1
  %tobool2.not = icmp eq i8 %2, 0
  br i1 %tobool2.not, label %if.else, label %if.then3

if.then3:                                         ; preds = %if.then
  %textLength = getelementptr inbounds i8, ptr %1, i64 8
  %3 = load i32, ptr %textLength, align 8
  %isForwardSearching = getelementptr inbounds i8, ptr %1, i64 40
  store i8 0, ptr %isForwardSearching, align 8
  %4 = load ptr, ptr %m_search_, align 8
  %reset7 = getelementptr inbounds i8, ptr %4, i64 41
  store i8 0, ptr %reset7, align 1
  %vtable = load ptr, ptr %this, align 8
  %vfn = getelementptr inbounds i8, ptr %vtable, i64 24
  %5 = load ptr, ptr %vfn, align 8
  tail call void %5(ptr noundef nonnull align 8 dereferenceable(88) %this, i32 noundef %3, ptr noundef nonnull align 4 dereferenceable(4) %status)
  br label %if.end

if.else:                                          ; preds = %if.then
  %vtable8 = load ptr, ptr %this, align 8
  %vfn9 = getelementptr inbounds i8, ptr %vtable8, i64 32
  %6 = load ptr, ptr %vfn9, align 8
  %call10 = tail call noundef i32 %6(ptr noundef nonnull align 8 dereferenceable(88) %this)
  br label %if.end

if.end:                                           ; preds = %if.else, %if.then3
  %offset.0 = phi i32 [ %3, %if.then3 ], [ %call10, %if.else ]
  %7 = load ptr, ptr %m_search_, align 8
  %matchedIndex = getelementptr inbounds i8, ptr %7, i64 32
  %8 = load i32, ptr %matchedIndex, align 8
  %isForwardSearching13 = getelementptr inbounds i8, ptr %7, i64 40
  %9 = load i8, ptr %isForwardSearching13, align 8
  %tobool14.not = icmp eq i8 %9, 0
  br i1 %tobool14.not, label %if.else20, label %if.then15

if.then15:                                        ; preds = %if.end
  store i8 0, ptr %isForwardSearching13, align 8
  %cond = icmp eq i32 %8, -1
  br i1 %cond, label %if.end36, label %return

if.else20:                                        ; preds = %if.end
  %cmp21 = icmp eq i32 %offset.0, 0
  %cmp22 = icmp eq i32 %8, 0
  %or.cond = select i1 %cmp21, i1 true, i1 %cmp22
  br i1 %or.cond, label %if.then23, label %if.end25

if.then23:                                        ; preds = %if.else20
  call void @llvm.lifetime.start.p0(i64 4, ptr nonnull %status.i)
  %vtable.i = load ptr, ptr %this, align 8
  %vfn.i = getelementptr inbounds i8, ptr %vtable.i, i64 104
  %10 = load ptr, ptr %vfn.i, align 8
  tail call void %10(ptr noundef nonnull align 8 dereferenceable(88) %this, i32 noundef -1)
  %vtable2.i = load ptr, ptr %this, align 8
  %vfn3.i = getelementptr inbounds i8, ptr %vtable2.i, i64 96
  %11 = load ptr, ptr %vfn3.i, align 8
  tail call void %11(ptr noundef nonnull align 8 dereferenceable(88) %this, i32 noundef 0)
  store i32 0, ptr %status.i, align 4
  %12 = load ptr, ptr %m_search_, align 8
  %isForwardSearching.i = getelementptr inbounds i8, ptr %12, i64 40
  %13 = load i8, ptr %isForwardSearching.i, align 8
  %tobool.not.i = icmp eq i8 %13, 0
  br i1 %tobool.not.i, label %_ZN6icu_7514SearchIterator16setMatchNotFoundEv.exit, label %if.then.i

if.then.i:                                        ; preds = %if.then23
  %textLength.i = getelementptr inbounds i8, ptr %12, i64 8
  %14 = load i32, ptr %textLength.i, align 8
  br label %_ZN6icu_7514SearchIterator16setMatchNotFoundEv.exit

_ZN6icu_7514SearchIterator16setMatchNotFoundEv.exit: ; preds = %if.then23, %if.then.i
  %.sink.i = phi i32 [ %14, %if.then.i ], [ 0, %if.then23 ]
  %vtable7.i = load ptr, ptr %this, align 8
  %vfn8.i = getelementptr inbounds i8, ptr %vtable7.i, i64 24
  %15 = load ptr, ptr %vfn8.i, align 8
  call void %15(ptr noundef nonnull align 8 dereferenceable(88) %this, i32 noundef %.sink.i, ptr noundef nonnull align 4 dereferenceable(4) %status.i)
  call void @llvm.lifetime.end.p0(i64 4, ptr nonnull %status.i)
  br label %return

if.end25:                                         ; preds = %if.else20
  %cmp26.not = icmp eq i32 %8, -1
  br i1 %cmp26.not, label %if.end36, label %if.then27

if.then27:                                        ; preds = %if.end25
  %isOverlap = getelementptr inbounds i8, ptr %7, i64 12
  %16 = load i8, ptr %isOverlap, align 4
  %tobool29.not = icmp eq i8 %16, 0
  br i1 %tobool29.not, label %if.end32, label %if.then30

if.then30:                                        ; preds = %if.then27
  %matchedLength = getelementptr inbounds i8, ptr %7, i64 36
  %17 = load i32, ptr %matchedLength, align 4
  %sub = add i32 %8, -2
  %add = add i32 %sub, %17
  br label %if.end32

if.end32:                                         ; preds = %if.then30, %if.then27
  %matchindex.0 = phi i32 [ %add, %if.then30 ], [ %8, %if.then27 ]
  %vtable33 = load ptr, ptr %this, align 8
  %vfn34 = getelementptr inbounds i8, ptr %vtable33, i64 88
  %18 = load ptr, ptr %vfn34, align 8
  %call35 = tail call noundef i32 %18(ptr noundef nonnull align 8 dereferenceable(88) %this, i32 noundef %matchindex.0, ptr noundef nonnull align 4 dereferenceable(4) %status)
  br label %return

if.end36:                                         ; preds = %if.then15, %if.end25
  %vtable37 = load ptr, ptr %this, align 8
  %vfn38 = getelementptr inbounds i8, ptr %vtable37, i64 88
  %19 = load ptr, ptr %vfn38, align 8
  %call39 = tail call noundef i32 %19(ptr noundef nonnull align 8 dereferenceable(88) %this, i32 noundef %offset.0, ptr noundef nonnull align 4 dereferenceable(4) %status)
  br label %return

return:                                           ; preds = %if.then15, %entry, %if.end36, %if.end32, %_ZN6icu_7514SearchIterator16setMatchNotFoundEv.exit
  %retval.0 = phi i32 [ %call35, %if.end32 ], [ %call39, %if.end36 ], [ -1, %_ZN6icu_7514SearchIterator16setMatchNotFoundEv.exit ], [ %8, %if.then15 ], [ -1, %entry ]
  ret i32 %retval.0
}